target datalayout = "e-m:e-p270:32:32-p271:32:32-p272:64:64-i64:64-i128:128-f80:128-n8:16:32:64-S128"
target triple = "x86_64-pc-linux-gnu"

%struct._MRIStepInnerStepper = type { ptr, ptr, ptr, ptr, i32, i32, i32, double, double, ptr, ptr, i64, i64, i64, i64 }
%struct._MRIStepInnerStepper_Ops = type { ptr, ptr, ptr, ptr, ptr, ptr }

; Function Attrs: nounwind uwtable
define i32 @mriStepInnerStepper_Reset(ptr noundef %0, double noundef %1, ptr noundef %2) #0 {
  %4 = alloca i32, align 4
  %5 = alloca ptr, align 8
  %6 = alloca double, align 8
  %7 = alloca ptr, align 8
  store ptr %0, ptr %5, align 8, !tbaa !11
  store double %1, ptr %6, align 8, !tbaa !7
  store ptr %2, ptr %7, align 8, !tbaa !9
  %8 = load ptr, ptr %5, align 8, !tbaa !11
  %9 = icmp eq ptr %8, null
  br i1 %9, label %10, label %11

10:                                               ; preds = %3
  store i32 -22, ptr %4, align 4
  br label %40

11:                                               ; preds = %3
  %12 = load ptr, ptr %5, align 8, !tbaa !11
  %13 = getelementptr inbounds nuw %struct._MRIStepInnerStepper, ptr %12, i32 0, i32 1
  %14 = load ptr, ptr %13, align 8, !tbaa !173
  %15 = icmp eq ptr %14, null
  br i1 %15, label %16, label %17

16:                                               ; preds = %11
  store i32 -22, ptr %4, align 4
  br label %40

17:                                               ; preds = %11
  %18 = load ptr, ptr %5, align 8, !tbaa !11
  %19 = getelementptr inbounds nuw %struct._MRIStepInnerStepper, ptr %18, i32 0, i32 1
  %20 = load ptr, ptr %19, align 8, !tbaa !173
  %21 = getelementptr inbounds nuw %struct._MRIStepInnerStepper_Ops, ptr %20, i32 0, i32 2
  %22 = load ptr, ptr %21, align 8, !tbaa !228
  %23 = icmp ne ptr %22, null
  br i1 %23, label %24, label %39

24:                                               ; preds = %17
  %25 = load ptr, ptr %5, align 8, !tbaa !11
  %26 = getelementptr inbounds nuw %struct._MRIStepInnerStepper, ptr %25, i32 0, i32 1
  %27 = load ptr, ptr %26, align 8, !tbaa !173
  %28 = getelementptr inbounds nuw %struct._MRIStepInnerStepper_Ops, ptr %27, i32 0, i32 2
  %29 = load ptr, ptr %28, align 8, !tbaa !228
  %30 = load ptr, ptr %5, align 8, !tbaa !11
  %31 = load double, ptr %6, align 8, !tbaa !7
  %32 = load ptr, ptr %7, align 8, !tbaa !9
  %33 = call i32 %29(ptr noundef %30, double noundef %31, ptr noundef %32)
  %34 = load ptr, ptr %5, align 8, !tbaa !11
  %35 = getelementptr inbounds nuw %struct._MRIStepInnerStepper, ptr %34, i32 0, i32 6
  store i32 %33, ptr %35, align 8, !tbaa !229
  %36 = load ptr, ptr %5, align 8, !tbaa !11
  %37 = getelementptr inbounds nuw %struct._MRIStepInnerStepper, ptr %36, i32 0, i32 6
  %38 = load i32, ptr %37, align 8, !tbaa !229
  store i32 %38, ptr %4, align 4
  br label %40

39:                                               ; preds = %17
  store i32 0, ptr %4, align 4
  br label %40

40:                                               ; preds = %39, %24, %16, %10
  %41 = load i32, ptr %4, align 4
  ret i32 %41
}