; Function Attrs: nounwind uwtable
define i32 @mriStepInnerStepper_Reset(ptr noundef %0, double noundef %1, ptr noundef %2) local_unnamed_addr #0 {
  %4 = icmp eq ptr %0, null
  br i1 %4, label %15, label %5

5:                                                ; preds = %3
  %6 = getelementptr inbounds nuw i8, ptr %0, i64 8
  %7 = load ptr, ptr %6, align 8, !tbaa !103
  %8 = icmp eq ptr %7, null
  br i1 %8, label %15, label %9

9:                                                ; preds = %5
  %10 = getelementptr inbounds nuw i8, ptr %7, i64 16
  %11 = load ptr, ptr %10, align 8, !tbaa !175
  %.not = icmp eq ptr %11, null
  br i1 %.not, label %15, label %12

12:                                               ; preds = %9
  %13 = tail call i32 %11(ptr noundef nonnull %0, double noundef %1, ptr noundef %2) #14
  %14 = getelementptr inbounds nuw i8, ptr %0, i64 40
  store i32 %13, ptr %14, align 8, !tbaa !166
  br label %15

15:                                               ; preds = %9, %5, %3, %12
  %.0 = phi i32 [ %13, %12 ], [ -22, %3 ], [ -22, %5 ], [ 0, %9 ]
  ret i32 %.0
}